#include <math.h>
#include <stdio.h>
#include <stdlib.h>
#include <string.h>


void main()
{
	int *a;
	int n;
	scanf("%d",&n);
	a=(int *)malloc(n*4);
	int i;
	for(i=0;i<n;i++)
		scanf("%d",a+i);
	int temp;
	for(i=0;i<n/2;i++)
	{
		temp=*(a+i);
		*(a+i)=*(a+n-1-i);
		*(a+n-1-i)=temp;
	}
	for(i=0;i<n;i++)
	{
		printf("%d",*(a+i));
		if(i!=n-1)
			printf(" ");
	}
}